target datalayout = "e-m:e-p270:32:32-p271:32:32-p272:64:64-i64:64-i128:128-f80:128-n8:16:32:64-S128"
target triple = "x86_64-pc-linux-gnu"

%struct.db_attr_st = type { i32 }
%struct.ca_db_st = type { %struct.db_attr_st, ptr, ptr, %struct.stat }
%struct.stat = type { i64, i64, i64, i32, i32, i32, i32, i64, i64, i64, i64, %struct.timespec, %struct.timespec, %struct.timespec, [3 x i64] }
%struct.timespec = type { i64, i64 }
%struct.txt_db_st = type { i32, ptr, ptr, ptr, i64, i64, i64, ptr }

@bio_err = external global ptr, align 8
@.str.230 = private unnamed_addr constant [12 x i8] c"%s=Expired\0A\00", align 1

; Function Attrs: inlinehint nounwind uwtable
define internal ptr @sk_OPENSSL_PSTRING_value(ptr noundef %0, i32 noundef %1) #5 {
  %3 = alloca ptr, align 8
  %4 = alloca i32, align 4
  store ptr %0, ptr %3, align 8, !tbaa !69
  store i32 %1, ptr %4, align 4, !tbaa !4
  %5 = load ptr, ptr %3, align 8, !tbaa !69
  %6 = load i32, ptr %4, align 4, !tbaa !4
  %7 = call ptr @OPENSSL_sk_value(ptr noundef %5, i32 noundef %6)
  ret ptr %7
}

; Function Attrs: inlinehint nounwind uwtable
define internal i32 @sk_OPENSSL_PSTRING_num(ptr noundef %0) #5 {
  %2 = alloca ptr, align 8
  store ptr %0, ptr %2, align 8, !tbaa !69
  %3 = load ptr, ptr %2, align 8, !tbaa !69
  %4 = call i32 @OPENSSL_sk_num(ptr noundef %3)
  ret i32 %4
}

; Function Attrs: nounwind uwtable
define dso_local i32 @do_updatedb(ptr noundef %0, ptr noundef %1) #0 {
  %3 = alloca i32, align 4
  %4 = alloca ptr, align 8
  %5 = alloca ptr, align 8
  %6 = alloca ptr, align 8
  %7 = alloca i32, align 4
  %8 = alloca i32, align 4
  %9 = alloca ptr, align 8
  %10 = alloca i32, align 4
  %11 = alloca ptr, align 8
  store ptr %0, ptr %4, align 8, !tbaa !21
  store ptr %1, ptr %5, align 8, !tbaa !72
  call void @llvm.lifetime.start.p0(i64 8, ptr %6) #10
  store ptr null, ptr %6, align 8, !tbaa !62
  call void @llvm.lifetime.start.p0(i64 4, ptr %7) #10
  call void @llvm.lifetime.start.p0(i64 4, ptr %8) #10
  store i32 0, ptr %8, align 4, !tbaa !4
  call void @llvm.lifetime.start.p0(i64 8, ptr %9) #10
  %12 = call ptr @ASN1_TIME_new()
  store ptr %12, ptr %6, align 8, !tbaa !62
  %13 = load ptr, ptr %6, align 8, !tbaa !62
  %14 = icmp eq ptr %13, null
  br i1 %14, label %15, label %16

15:                                               ; preds = %2
  store i32 -1, ptr %3, align 4
  store i32 1, ptr %10, align 4
  br label %97

16:                                               ; preds = %2
  %17 = load ptr, ptr %6, align 8, !tbaa !62
  %18 = load ptr, ptr %5, align 8, !tbaa !72
  %19 = call ptr @X509_time_adj(ptr noundef %17, i64 noundef 0, ptr noundef %18)
  %20 = icmp eq ptr %19, null
  br i1 %20, label %21, label %23

21:                                               ; preds = %16
  %22 = load ptr, ptr %6, align 8, !tbaa !62
  call void @ASN1_TIME_free(ptr noundef %22)
  store i32 -1, ptr %3, align 4
  store i32 1, ptr %10, align 4
  br label %97

23:                                               ; preds = %16
  store i32 0, ptr %7, align 4, !tbaa !4
  br label %24

24:                                               ; preds = %91, %23
  %25 = load i32, ptr %7, align 4, !tbaa !4
  %26 = load ptr, ptr %4, align 8, !tbaa !21
  %27 = getelementptr inbounds nuw %struct.ca_db_st, ptr %26, i32 0, i32 1
  %28 = load ptr, ptr %27, align 8, !tbaa !44
  %29 = getelementptr inbounds nuw %struct.txt_db_st, ptr %28, i32 0, i32 1
  %30 = load ptr, ptr %29, align 8, !tbaa !49
  %31 = call i32 @sk_OPENSSL_PSTRING_num(ptr noundef %30)
  %32 = icmp slt i32 %25, %31
  br i1 %32, label %33, label %94

33:                                               ; preds = %24
  %34 = load ptr, ptr %4, align 8, !tbaa !21
  %35 = getelementptr inbounds nuw %struct.ca_db_st, ptr %34, i32 0, i32 1
  %36 = load ptr, ptr %35, align 8, !tbaa !44
  %37 = getelementptr inbounds nuw %struct.txt_db_st, ptr %36, i32 0, i32 1
  %38 = load ptr, ptr %37, align 8, !tbaa !49
  %39 = load i32, ptr %7, align 4, !tbaa !4
  %40 = call ptr @sk_OPENSSL_PSTRING_value(ptr noundef %38, i32 noundef %39)
  store ptr %40, ptr %9, align 8, !tbaa !8
  %41 = load ptr, ptr %9, align 8, !tbaa !8
  %42 = getelementptr inbounds ptr, ptr %41, i64 0
  %43 = load ptr, ptr %42, align 8, !tbaa !31
  %44 = getelementptr inbounds i8, ptr %43, i64 0
  %45 = load i8, ptr %44, align 1, !tbaa !43
  %46 = sext i8 %45 to i32
  %47 = icmp eq i32 %46, 86
  br i1 %47, label %48, label %90

48:                                               ; preds = %33
  call void @llvm.lifetime.start.p0(i64 8, ptr %11) #10
  store ptr null, ptr %11, align 8, !tbaa !62
  %49 = call ptr @ASN1_TIME_new()
  store ptr %49, ptr %11, align 8, !tbaa !62
  %50 = load ptr, ptr %11, align 8, !tbaa !62
  %51 = icmp eq ptr %50, null
  br i1 %51, label %52, label %54

52:                                               ; preds = %48
  %53 = load ptr, ptr %6, align 8, !tbaa !62
  call void @ASN1_TIME_free(ptr noundef %53)
  store i32 -1, ptr %3, align 4
  store i32 1, ptr %10, align 4
  br label %87

54:                                               ; preds = %48
  %55 = load ptr, ptr %11, align 8, !tbaa !62
  %56 = load ptr, ptr %9, align 8, !tbaa !8
  %57 = getelementptr inbounds ptr, ptr %56, i64 1
  %58 = load ptr, ptr %57, align 8, !tbaa !31
  %59 = call i32 @ASN1_TIME_set_string(ptr noundef %55, ptr noundef %58)
  %60 = icmp ne i32 %59, 0
  br i1 %60, label %64, label %61

61:                                               ; preds = %54
  %62 = load ptr, ptr %6, align 8, !tbaa !62
  call void @ASN1_TIME_free(ptr noundef %62)
  %63 = load ptr, ptr %11, align 8, !tbaa !62
  call void @ASN1_TIME_free(ptr noundef %63)
  store i32 -1, ptr %3, align 4
  store i32 1, ptr %10, align 4
  br label %87

64:                                               ; preds = %54
  %65 = load ptr, ptr %11, align 8, !tbaa !62
  %66 = load ptr, ptr %6, align 8, !tbaa !62
  %67 = call i32 @ASN1_TIME_compare(ptr noundef %65, ptr noundef %66)
  %68 = icmp sle i32 %67, 0
  br i1 %68, label %69, label %85

69:                                               ; preds = %64
  %70 = load ptr, ptr %9, align 8, !tbaa !8
  %71 = getelementptr inbounds ptr, ptr %70, i64 0
  %72 = load ptr, ptr %71, align 8, !tbaa !31
  %73 = getelementptr inbounds i8, ptr %72, i64 0
  store i8 69, ptr %73, align 1, !tbaa !43
  %74 = load ptr, ptr %9, align 8, !tbaa !8
  %75 = getelementptr inbounds ptr, ptr %74, i64 0
  %76 = load ptr, ptr %75, align 8, !tbaa !31
  %77 = getelementptr inbounds i8, ptr %76, i64 1
  store i8 0, ptr %77, align 1, !tbaa !43
  %78 = load i32, ptr %8, align 4, !tbaa !4
  %79 = add nsw i32 %78, 1
  store i32 %79, ptr %8, align 4, !tbaa !4
  %80 = load ptr, ptr @bio_err, align 8, !tbaa !19
  %81 = load ptr, ptr %9, align 8, !tbaa !8
  %82 = getelementptr inbounds ptr, ptr %81, i64 3
  %83 = load ptr, ptr %82, align 8, !tbaa !31
  %84 = call i32 (ptr, ptr, ...) @BIO_printf(ptr noundef %80, ptr noundef @.str.230, ptr noundef %83)
  br label %85

85:                                               ; preds = %69, %64
  %86 = load ptr, ptr %11, align 8, !tbaa !62
  call void @ASN1_TIME_free(ptr noundef %86)
  store i32 0, ptr %10, align 4
  br label %87

87:                                               ; preds = %85, %61, %52
  call void @llvm.lifetime.end.p0(i64 8, ptr %11) #10
  %88 = load i32, ptr %10, align 4
  switch i32 %88, label %97 [
    i32 0, label %89
  ]

89:                                               ; preds = %87
  br label %90

90:                                               ; preds = %89, %33
  br label %91

91:                                               ; preds = %90
  %92 = load i32, ptr %7, align 4, !tbaa !4
  %93 = add nsw i32 %92, 1
  store i32 %93, ptr %7, align 4, !tbaa !4
  br label %24, !llvm.loop !74

94:                                               ; preds = %24
  %95 = load ptr, ptr %6, align 8, !tbaa !62
  call void @ASN1_TIME_free(ptr noundef %95)
  %96 = load i32, ptr %8, align 4, !tbaa !4
  store i32 %96, ptr %3, align 4
  store i32 1, ptr %10, align 4
  br label %97

97:                                               ; preds = %94, %87, %21, %15
  call void @llvm.lifetime.end.p0(i64 8, ptr %9) #10
  call void @llvm.lifetime.end.p0(i64 4, ptr %8) #10
  call void @llvm.lifetime.end.p0(i64 4, ptr %7) #10
  call void @llvm.lifetime.end.p0(i64 8, ptr %6) #10
  %98 = load i32, ptr %3, align 4
  ret i32 %98
}